target datalayout = "e-m:e-p270:32:32-p271:32:32-p272:64:64-i64:64-i128:128-f80:128-n8:16:32:64-S128"
target triple = "x86_64-pc-linux-gnu"

%struct.Vec_Int_t_ = type { i32, i32, ptr }

; Function Attrs: inlinehint nounwind uwtable
define internal i32 @Abc_LitNotCond(i32 noundef %0, i32 noundef %1) #2 {
  %3 = alloca i32, align 4
  %4 = alloca i32, align 4
  store i32 %0, ptr %3, align 4, !tbaa !8
  store i32 %1, ptr %4, align 4, !tbaa !8
  %5 = load i32, ptr %3, align 4, !tbaa !8
  %6 = load i32, ptr %4, align 4, !tbaa !8
  %7 = icmp sgt i32 %6, 0
  %8 = zext i1 %7 to i32
  %9 = xor i32 %5, %8
  ret i32 %9
}

; Function Attrs: inlinehint nounwind uwtable
define internal void @Vec_IntGrow(ptr noundef %0, i32 noundef %1) #2 {
  %3 = alloca ptr, align 8
  %4 = alloca i32, align 4
  store ptr %0, ptr %3, align 8, !tbaa !31
  store i32 %1, ptr %4, align 4, !tbaa !8
  %5 = load ptr, ptr %3, align 8, !tbaa !31
  %6 = getelementptr inbounds nuw %struct.Vec_Int_t_, ptr %5, i32 0, i32 0
  %7 = load i32, ptr %6, align 8, !tbaa !34
  %8 = load i32, ptr %4, align 4, !tbaa !8
  %9 = icmp sge i32 %7, %8
  br i1 %9, label %10, label %11

10:                                               ; preds = %2
  br label %36

11:                                               ; preds = %2
  %12 = load ptr, ptr %3, align 8, !tbaa !31
  %13 = getelementptr inbounds nuw %struct.Vec_Int_t_, ptr %12, i32 0, i32 2
  %14 = load ptr, ptr %13, align 8, !tbaa !35
  %15 = icmp ne ptr %14, null
  br i1 %15, label %16, label %24

16:                                               ; preds = %11
  %17 = load ptr, ptr %3, align 8, !tbaa !31
  %18 = getelementptr inbounds nuw %struct.Vec_Int_t_, ptr %17, i32 0, i32 2
  %19 = load ptr, ptr %18, align 8, !tbaa !35
  %20 = load i32, ptr %4, align 4, !tbaa !8
  %21 = sext i32 %20 to i64
  %22 = mul i64 4, %21
  %23 = call ptr @realloc(ptr noundef %19, i64 noundef %22) #16
  br label %29

24:                                               ; preds = %11
  %25 = load i32, ptr %4, align 4, !tbaa !8
  %26 = sext i32 %25 to i64
  %27 = mul i64 4, %26
  %28 = call noalias ptr @malloc(i64 noundef %27) #14
  br label %29

29:                                               ; preds = %24, %16
  %30 = phi ptr [ %23, %16 ], [ %28, %24 ]
  %31 = load ptr, ptr %3, align 8, !tbaa !31
  %32 = getelementptr inbounds nuw %struct.Vec_Int_t_, ptr %31, i32 0, i32 2
  store ptr %30, ptr %32, align 8, !tbaa !35
  %33 = load i32, ptr %4, align 4, !tbaa !8
  %34 = load ptr, ptr %3, align 8, !tbaa !31
  %35 = getelementptr inbounds nuw %struct.Vec_Int_t_, ptr %34, i32 0, i32 0
  store i32 %33, ptr %35, align 8, !tbaa !34
  br label %36

36:                                               ; preds = %29, %10
  ret void
}

; Function Attrs: inlinehint nounwind uwtable
define internal i32 @Abc_LitNot(i32 noundef %0) #2 {
  %2 = alloca i32, align 4
  store i32 %0, ptr %2, align 4, !tbaa !8
  %3 = load i32, ptr %2, align 4, !tbaa !8
  %4 = xor i32 %3, 1
  ret i32 %4
}

; Function Attrs: nounwind uwtable
define void @Wlc_BlastFullAdderCtrl(ptr noundef %0, i32 noundef %1, i32 noundef %2, i32 noundef %3, i32 noundef %4, ptr noundef %5, ptr noundef %6, i32 noundef %7) #0 {
  %9 = alloca ptr, align 8
  %10 = alloca i32, align 4
  %11 = alloca i32, align 4
  %12 = alloca i32, align 4
  %13 = alloca i32, align 4
  %14 = alloca ptr, align 8
  %15 = alloca ptr, align 8
  %16 = alloca i32, align 4
  %17 = alloca i32, align 4
  store ptr %0, ptr %9, align 8, !tbaa !38
  store i32 %1, ptr %10, align 4, !tbaa !8
  store i32 %2, ptr %11, align 4, !tbaa !8
  store i32 %3, ptr %12, align 4, !tbaa !8
  store i32 %4, ptr %13, align 4, !tbaa !8
  store ptr %5, ptr %14, align 8, !tbaa !3
  store ptr %6, ptr %15, align 8, !tbaa !3
  store i32 %7, ptr %16, align 4, !tbaa !8
  call void @llvm.lifetime.start.p0(i64 4, ptr %17) #12
  %18 = load ptr, ptr %9, align 8, !tbaa !38
  %19 = load i32, ptr %10, align 4, !tbaa !8
  %20 = load i32, ptr %11, align 4, !tbaa !8
  %21 = call i32 @Gia_ManHashAnd(ptr noundef %18, i32 noundef %19, i32 noundef %20)
  %22 = load i32, ptr %16, align 4, !tbaa !8
  %23 = call i32 @Abc_LitNotCond(i32 noundef %21, i32 noundef %22)
  store i32 %23, ptr %17, align 4, !tbaa !8
  %24 = load ptr, ptr %9, align 8, !tbaa !38
  %25 = load i32, ptr %17, align 4, !tbaa !8
  %26 = load i32, ptr %12, align 4, !tbaa !8
  %27 = load i32, ptr %13, align 4, !tbaa !8
  %28 = load ptr, ptr %14, align 8, !tbaa !3
  %29 = load ptr, ptr %15, align 8, !tbaa !3
  call void @Wlc_BlastFullAdder(ptr noundef %24, i32 noundef %25, i32 noundef %26, i32 noundef %27, ptr noundef %28, ptr noundef %29)
  call void @llvm.lifetime.end.p0(i64 4, ptr %17) #12
  ret void
}

; Function Attrs: inlinehint nounwind uwtable
define internal ptr @Vec_IntArray(ptr noundef %0) #2 {
  %2 = alloca ptr, align 8
  store ptr %0, ptr %2, align 8, !tbaa !31
  %3 = load ptr, ptr %2, align 8, !tbaa !31
  %4 = getelementptr inbounds nuw %struct.Vec_Int_t_, ptr %3, i32 0, i32 2
  %5 = load ptr, ptr %4, align 8, !tbaa !35
  ret ptr %5
}

; Function Attrs: inlinehint nounwind uwtable
define internal void @Vec_IntFill(ptr noundef %0, i32 noundef %1, i32 noundef %2) #2 {
  %4 = alloca ptr, align 8
  %5 = alloca i32, align 4
  %6 = alloca i32, align 4
  %7 = alloca i32, align 4
  store ptr %0, ptr %4, align 8, !tbaa !31
  store i32 %1, ptr %5, align 4, !tbaa !8
  store i32 %2, ptr %6, align 4, !tbaa !8
  call void @llvm.lifetime.start.p0(i64 4, ptr %7) #12
  %8 = load ptr, ptr %4, align 8, !tbaa !31
  %9 = load i32, ptr %5, align 4, !tbaa !8
  call void @Vec_IntGrow(ptr noundef %8, i32 noundef %9)
  store i32 0, ptr %7, align 4, !tbaa !8
  br label %10

10:                                               ; preds = %22, %3
  %11 = load i32, ptr %7, align 4, !tbaa !8
  %12 = load i32, ptr %5, align 4, !tbaa !8
  %13 = icmp slt i32 %11, %12
  br i1 %13, label %14, label %25

14:                                               ; preds = %10
  %15 = load i32, ptr %6, align 4, !tbaa !8
  %16 = load ptr, ptr %4, align 8, !tbaa !31
  %17 = getelementptr inbounds nuw %struct.Vec_Int_t_, ptr %16, i32 0, i32 2
  %18 = load ptr, ptr %17, align 8, !tbaa !35
  %19 = load i32, ptr %7, align 4, !tbaa !8
  %20 = sext i32 %19 to i64
  %21 = getelementptr inbounds i32, ptr %18, i64 %20
  store i32 %15, ptr %21, align 4, !tbaa !8
  br label %22

22:                                               ; preds = %14
  %23 = load i32, ptr %7, align 4, !tbaa !8
  %24 = add nsw i32 %23, 1
  store i32 %24, ptr %7, align 4, !tbaa !8
  br label %10, !llvm.loop !96

25:                                               ; preds = %10
  %26 = load i32, ptr %5, align 4, !tbaa !8
  %27 = load ptr, ptr %4, align 8, !tbaa !31
  %28 = getelementptr inbounds nuw %struct.Vec_Int_t_, ptr %27, i32 0, i32 1
  store i32 %26, ptr %28, align 4, !tbaa !33
  call void @llvm.lifetime.end.p0(i64 4, ptr %7) #12
  ret void
}

; Function Attrs: nounwind uwtable
define void @Wlc_BlastMultiplierC(ptr noundef %0, ptr noundef %1, ptr noundef %2, i32 noundef %3, i32 noundef %4, ptr noundef %5, ptr noundef %6, i32 noundef %7) #0 {
  %9 = alloca ptr, align 8
  %10 = alloca ptr, align 8
  %11 = alloca ptr, align 8
  %12 = alloca i32, align 4
  %13 = alloca i32, align 4
  %14 = alloca ptr, align 8
  %15 = alloca ptr, align 8
  %16 = alloca i32, align 4
  %17 = alloca ptr, align 8
  %18 = alloca ptr, align 8
  %19 = alloca ptr, align 8
  %20 = alloca i32, align 4
  %21 = alloca i32, align 4
  %22 = alloca i32, align 4
  store ptr %0, ptr %9, align 8, !tbaa !38
  store ptr %1, ptr %10, align 8, !tbaa !3
  store ptr %2, ptr %11, align 8, !tbaa !3
  store i32 %3, ptr %12, align 4, !tbaa !8
  store i32 %4, ptr %13, align 4, !tbaa !8
  store ptr %5, ptr %14, align 8, !tbaa !31
  store ptr %6, ptr %15, align 8, !tbaa !31
  store i32 %7, ptr %16, align 4, !tbaa !8
  call void @llvm.lifetime.start.p0(i64 8, ptr %17) #12
  call void @llvm.lifetime.start.p0(i64 8, ptr %18) #12
  call void @llvm.lifetime.start.p0(i64 8, ptr %19) #12
  call void @llvm.lifetime.start.p0(i64 4, ptr %20) #12
  call void @llvm.lifetime.start.p0(i64 4, ptr %21) #12
  call void @llvm.lifetime.start.p0(i64 4, ptr %22) #12
  %23 = load i32, ptr %16, align 4, !tbaa !8
  %24 = icmp ne i32 %23, 0
  %25 = xor i1 %24, true
  %26 = zext i1 %25 to i32
  store i32 %26, ptr %22, align 4, !tbaa !8
  %27 = load ptr, ptr %15, align 8, !tbaa !31
  %28 = load i32, ptr %12, align 4, !tbaa !8
  %29 = load i32, ptr %13, align 4, !tbaa !8
  %30 = add nsw i32 %28, %29
  call void @Vec_IntFill(ptr noundef %27, i32 noundef %30, i32 noundef 0)
  %31 = load ptr, ptr %15, align 8, !tbaa !31
  %32 = call ptr @Vec_IntArray(ptr noundef %31)
  store ptr %32, ptr %17, align 8, !tbaa !3
  %33 = load ptr, ptr %14, align 8, !tbaa !31
  %34 = load i32, ptr %12, align 4, !tbaa !8
  %35 = mul nsw i32 2, %34
  call void @Vec_IntFill(ptr noundef %33, i32 noundef %35, i32 noundef 1)
  %36 = load ptr, ptr %14, align 8, !tbaa !31
  %37 = call ptr @Vec_IntArray(ptr noundef %36)
  store ptr %37, ptr %18, align 8, !tbaa !3
  %38 = load ptr, ptr %18, align 8, !tbaa !3
  %39 = load i32, ptr %12, align 4, !tbaa !8
  %40 = sext i32 %39 to i64
  %41 = getelementptr inbounds i32, ptr %38, i64 %40
  store ptr %41, ptr %19, align 8, !tbaa !3
  store i32 0, ptr %21, align 4, !tbaa !8
  br label %42

42:                                               ; preds = %115, %8
  %43 = load i32, ptr %21, align 4, !tbaa !8
  %44 = load i32, ptr %13, align 4, !tbaa !8
  %45 = icmp slt i32 %43, %44
  br i1 %45, label %46, label %118

46:                                               ; preds = %42
  store i32 0, ptr %20, align 4, !tbaa !8
  br label %47

47:                                               ; preds = %111, %46
  %48 = load i32, ptr %20, align 4, !tbaa !8
  %49 = load i32, ptr %12, align 4, !tbaa !8
  %50 = icmp slt i32 %48, %49
  br i1 %50, label %51, label %114

51:                                               ; preds = %47
  %52 = load ptr, ptr %9, align 8, !tbaa !38
  %53 = load ptr, ptr %10, align 8, !tbaa !3
  %54 = load i32, ptr %20, align 4, !tbaa !8
  %55 = sext i32 %54 to i64
  %56 = getelementptr inbounds i32, ptr %53, i64 %55
  %57 = load i32, ptr %56, align 4, !tbaa !8
  %58 = load ptr, ptr %11, align 8, !tbaa !3
  %59 = load i32, ptr %21, align 4, !tbaa !8
  %60 = sext i32 %59 to i64
  %61 = getelementptr inbounds i32, ptr %58, i64 %60
  %62 = load i32, ptr %61, align 4, !tbaa !8
  %63 = load ptr, ptr %19, align 8, !tbaa !3
  %64 = load i32, ptr %20, align 4, !tbaa !8
  %65 = sext i32 %64 to i64
  %66 = getelementptr inbounds i32, ptr %63, i64 %65
  %67 = load i32, ptr %66, align 4, !tbaa !8
  %68 = load ptr, ptr %18, align 8, !tbaa !3
  %69 = load i32, ptr %20, align 4, !tbaa !8
  %70 = sext i32 %69 to i64
  %71 = getelementptr inbounds i32, ptr %68, i64 %70
  %72 = load i32, ptr %71, align 4, !tbaa !8
  %73 = load ptr, ptr %18, align 8, !tbaa !3
  %74 = load i32, ptr %20, align 4, !tbaa !8
  %75 = sext i32 %74 to i64
  %76 = getelementptr inbounds i32, ptr %73, i64 %75
  %77 = load i32, ptr %20, align 4, !tbaa !8
  %78 = icmp ne i32 %77, 0
  br i1 %78, label %79, label %85

79:                                               ; preds = %51
  %80 = load ptr, ptr %19, align 8, !tbaa !3
  %81 = load i32, ptr %20, align 4, !tbaa !8
  %82 = sub nsw i32 %81, 1
  %83 = sext i32 %82 to i64
  %84 = getelementptr inbounds i32, ptr %80, i64 %83
  br label %90

85:                                               ; preds = %51
  %86 = load ptr, ptr %17, align 8, !tbaa !3
  %87 = load i32, ptr %21, align 4, !tbaa !8
  %88 = sext i32 %87 to i64
  %89 = getelementptr inbounds i32, ptr %86, i64 %88
  br label %90

90:                                               ; preds = %85, %79
  %91 = phi ptr [ %84, %79 ], [ %89, %85 ]
  %92 = load i32, ptr %16, align 4, !tbaa !8
  %93 = icmp ne i32 %92, 0
  br i1 %93, label %94, label %107

94:                                               ; preds = %90
  %95 = load i32, ptr %20, align 4, !tbaa !8
  %96 = add nsw i32 %95, 1
  %97 = load i32, ptr %12, align 4, !tbaa !8
  %98 = icmp eq i32 %96, %97
  %99 = zext i1 %98 to i32
  %100 = load i32, ptr %21, align 4, !tbaa !8
  %101 = add nsw i32 %100, 1
  %102 = load i32, ptr %13, align 4, !tbaa !8
  %103 = icmp eq i32 %101, %102
  %104 = zext i1 %103 to i32
  %105 = xor i32 %99, %104
  %106 = icmp ne i32 %105, 0
  br label %107

107:                                              ; preds = %94, %90
  %108 = phi i1 [ false, %90 ], [ %106, %94 ]
  %109 = xor i1 %108, true
  %110 = zext i1 %109 to i32
  call void @Wlc_BlastFullAdderCtrl(ptr noundef %52, i32 noundef %57, i32 noundef %62, i32 noundef %67, i32 noundef %72, ptr noundef %76, ptr noundef %91, i32 noundef %110)
  br label %111

111:                                              ; preds = %107
  %112 = load i32, ptr %20, align 4, !tbaa !8
  %113 = add nsw i32 %112, 1
  store i32 %113, ptr %20, align 4, !tbaa !8
  br label %47, !llvm.loop !100

114:                                              ; preds = %47
  br label %115

115:                                              ; preds = %114
  %116 = load i32, ptr %21, align 4, !tbaa !8
  %117 = add nsw i32 %116, 1
  store i32 %117, ptr %21, align 4, !tbaa !8
  br label %42, !llvm.loop !101

118:                                              ; preds = %42
  %119 = load i32, ptr %16, align 4, !tbaa !8
  %120 = icmp ne i32 %119, 0
  %121 = xor i1 %120, true
  %122 = zext i1 %121 to i32
  %123 = load ptr, ptr %19, align 8, !tbaa !3
  %124 = load i32, ptr %12, align 4, !tbaa !8
  %125 = sub nsw i32 %124, 1
  %126 = sext i32 %125 to i64
  %127 = getelementptr inbounds i32, ptr %123, i64 %126
  store i32 %122, ptr %127, align 4, !tbaa !8
  store i32 0, ptr %20, align 4, !tbaa !8
  br label %128

128:                                              ; preds = %151, %118
  %129 = load i32, ptr %20, align 4, !tbaa !8
  %130 = load i32, ptr %12, align 4, !tbaa !8
  %131 = icmp slt i32 %129, %130
  br i1 %131, label %132, label %154

132:                                              ; preds = %128
  %133 = load ptr, ptr %9, align 8, !tbaa !38
  %134 = load ptr, ptr %18, align 8, !tbaa !3
  %135 = load i32, ptr %20, align 4, !tbaa !8
  %136 = sext i32 %135 to i64
  %137 = getelementptr inbounds i32, ptr %134, i64 %136
  %138 = load i32, ptr %137, align 4, !tbaa !8
  %139 = load ptr, ptr %19, align 8, !tbaa !3
  %140 = load i32, ptr %20, align 4, !tbaa !8
  %141 = sext i32 %140 to i64
  %142 = getelementptr inbounds i32, ptr %139, i64 %141
  %143 = load i32, ptr %142, align 4, !tbaa !8
  %144 = load i32, ptr %22, align 4, !tbaa !8
  %145 = load ptr, ptr %17, align 8, !tbaa !3
  %146 = load i32, ptr %13, align 4, !tbaa !8
  %147 = load i32, ptr %20, align 4, !tbaa !8
  %148 = add nsw i32 %146, %147
  %149 = sext i32 %148 to i64
  %150 = getelementptr inbounds i32, ptr %145, i64 %149
  call void @Wlc_BlastFullAdderCtrl(ptr noundef %133, i32 noundef 1, i32 noundef %138, i32 noundef %143, i32 noundef %144, ptr noundef %22, ptr noundef %150, i32 noundef 0)
  br label %151

151:                                              ; preds = %132
  %152 = load i32, ptr %20, align 4, !tbaa !8
  %153 = add nsw i32 %152, 1
  store i32 %153, ptr %20, align 4, !tbaa !8
  br label %128, !llvm.loop !102

154:                                              ; preds = %128
  store i32 0, ptr %21, align 4, !tbaa !8
  br label %155

155:                                              ; preds = %172, %154
  %156 = load i32, ptr %21, align 4, !tbaa !8
  %157 = load i32, ptr %12, align 4, !tbaa !8
  %158 = load i32, ptr %13, align 4, !tbaa !8
  %159 = add nsw i32 %157, %158
  %160 = icmp slt i32 %156, %159
  br i1 %160, label %161, label %175

161:                                              ; preds = %155
  %162 = load ptr, ptr %17, align 8, !tbaa !3
  %163 = load i32, ptr %21, align 4, !tbaa !8
  %164 = sext i32 %163 to i64
  %165 = getelementptr inbounds i32, ptr %162, i64 %164
  %166 = load i32, ptr %165, align 4, !tbaa !8
  %167 = call i32 @Abc_LitNot(i32 noundef %166)
  %168 = load ptr, ptr %17, align 8, !tbaa !3
  %169 = load i32, ptr %21, align 4, !tbaa !8
  %170 = sext i32 %169 to i64
  %171 = getelementptr inbounds i32, ptr %168, i64 %170
  store i32 %167, ptr %171, align 4, !tbaa !8
  br label %172

172:                                              ; preds = %161
  %173 = load i32, ptr %21, align 4, !tbaa !8
  %174 = add nsw i32 %173, 1
  store i32 %174, ptr %21, align 4, !tbaa !8
  br label %155, !llvm.loop !103

175:                                              ; preds = %155
  call void @llvm.lifetime.end.p0(i64 4, ptr %22) #12
  call void @llvm.lifetime.end.p0(i64 4, ptr %21) #12
  call void @llvm.lifetime.end.p0(i64 4, ptr %20) #12
  call void @llvm.lifetime.end.p0(i64 8, ptr %19) #12
  call void @llvm.lifetime.end.p0(i64 8, ptr %18) #12
  call void @llvm.lifetime.end.p0(i64 8, ptr %17) #12
  ret void
}