; Function Attrs: nounwind uwtable
define void @Wlc_BlastMultiplierC(ptr noundef %0, ptr noundef readonly captures(none) %1, ptr noundef readonly captures(none) %2, i32 noundef %3, i32 noundef %4, ptr noundef captures(none) %5, ptr noundef captures(none) initializes((4, 8)) %6, i32 noundef %7) local_unnamed_addr #2 {
  %9 = alloca i32, align 4
  call void @llvm.lifetime.start.p0(i64 4, ptr nonnull %9) #23
  %.not = icmp eq i32 %7, 0
  %10 = zext i1 %.not to i32
  store i32 %10, ptr %9, align 4, !tbaa !3
  %11 = add nsw i32 %4, %3
  %12 = load i32, ptr %6, align 8, !tbaa !21
  %.not.i.i = icmp slt i32 %12, %11
  br i1 %.not.i.i, label %13, label %Vec_IntGrow.exit.i

13:                                               ; preds = %8
  %14 = getelementptr inbounds nuw i8, ptr %6, i64 8
  %15 = load ptr, ptr %14, align 8, !tbaa !22
  %.not9.i.i = icmp eq ptr %15, null
  %16 = sext i32 %11 to i64
  %17 = shl nsw i64 %16, 2
  br i1 %.not9.i.i, label %20, label %18

18:                                               ; preds = %13
  %19 = tail call ptr @realloc(ptr noundef nonnull %15, i64 noundef %17) #21
  br label %22

20:                                               ; preds = %13
  %21 = tail call noalias ptr @malloc(i64 noundef %17) #22
  br label %22

22:                                               ; preds = %20, %18
  %23 = phi ptr [ %19, %18 ], [ %21, %20 ]
  store ptr %23, ptr %14, align 8, !tbaa !22
  store i32 %11, ptr %6, align 8, !tbaa !21
  br label %Vec_IntGrow.exit.i

Vec_IntGrow.exit.i:                               ; preds = %22, %8
  %24 = icmp sgt i32 %11, 0
  %25 = getelementptr i8, ptr %6, i64 8
  %26 = load ptr, ptr %25, align 8, !tbaa !22
  br i1 %24, label %.lr.ph.i, label %Vec_IntFill.exit

.lr.ph.i:                                         ; preds = %Vec_IntGrow.exit.i
  %wide.trip.count.i = zext nneg i32 %11 to i64
  %27 = shl nuw nsw i64 %wide.trip.count.i, 2
  tail call void @llvm.memset.p0.i64(ptr align 4 %26, i8 0, i64 %27, i1 false), !tbaa !3
  br label %Vec_IntFill.exit

Vec_IntFill.exit:                                 ; preds = %Vec_IntGrow.exit.i, %.lr.ph.i
  %28 = getelementptr inbounds nuw i8, ptr %6, i64 4
  store i32 %11, ptr %28, align 4, !tbaa !23
  %29 = shl nsw i32 %3, 1
  %30 = load i32, ptr %5, align 8, !tbaa !21
  %.not.i.i65 = icmp slt i32 %30, %29
  br i1 %.not.i.i65, label %31, label %Vec_IntGrow.exit.i66

31:                                               ; preds = %Vec_IntFill.exit
  %32 = getelementptr inbounds nuw i8, ptr %5, i64 8
  %33 = load ptr, ptr %32, align 8, !tbaa !22
  %.not9.i.i72 = icmp eq ptr %33, null
  %34 = sext i32 %29 to i64
  %35 = shl nsw i64 %34, 2
  br i1 %.not9.i.i72, label %38, label %36

36:                                               ; preds = %31
  %37 = tail call ptr @realloc(ptr noundef nonnull %33, i64 noundef %35) #21
  br label %40

38:                                               ; preds = %31
  %39 = tail call noalias ptr @malloc(i64 noundef %35) #22
  br label %40

40:                                               ; preds = %38, %36
  %41 = phi ptr [ %37, %36 ], [ %39, %38 ]
  store ptr %41, ptr %32, align 8, !tbaa !22
  store i32 %29, ptr %5, align 8, !tbaa !21
  br label %Vec_IntGrow.exit.i66

Vec_IntGrow.exit.i66:                             ; preds = %40, %Vec_IntFill.exit
  %42 = icmp sgt i32 %3, 0
  %43 = getelementptr i8, ptr %5, i64 8
  %44 = load ptr, ptr %43, align 8, !tbaa !22
  br i1 %42, label %.lr.ph.i67, label %Vec_IntFill.exit73.thread

.lr.ph.i67:                                       ; preds = %Vec_IntGrow.exit.i66
  %wide.trip.count.i68 = zext nneg i32 %29 to i64
  br label %45

45:                                               ; preds = %45, %.lr.ph.i67
  %indvars.iv.i69 = phi i64 [ 0, %.lr.ph.i67 ], [ %indvars.iv.next.i70, %45 ]
  %46 = getelementptr inbounds nuw i32, ptr %44, i64 %indvars.iv.i69
  store i32 1, ptr %46, align 4, !tbaa !3
  %indvars.iv.next.i70 = add nuw nsw i64 %indvars.iv.i69, 1
  %exitcond.not.i71 = icmp eq i64 %indvars.iv.next.i70, %wide.trip.count.i68
  br i1 %exitcond.not.i71, label %Vec_IntFill.exit73, label %45, !llvm.loop !85

Vec_IntFill.exit73:                               ; preds = %45
  %47 = getelementptr inbounds nuw i8, ptr %5, i64 4
  store i32 %29, ptr %47, align 4, !tbaa !23
  %48 = zext nneg i32 %3 to i64
  %49 = getelementptr inbounds nuw i32, ptr %44, i64 %48
  %50 = icmp sgt i32 %4, 0
  br i1 %50, label %.preheader74.us.preheader, label %._crit_edge77

Vec_IntFill.exit73.thread:                        ; preds = %Vec_IntGrow.exit.i66
  %51 = getelementptr inbounds nuw i8, ptr %5, i64 4
  store i32 %29, ptr %51, align 4, !tbaa !23
  %52 = sext i32 %3 to i64
  %53 = getelementptr inbounds i32, ptr %44, i64 %52
  %54 = getelementptr i32, ptr %53, i64 %52
  %55 = getelementptr i8, ptr %54, i64 -4
  store i32 %10, ptr %55, align 4, !tbaa !3
  br label %.preheader

.preheader74.us.preheader:                        ; preds = %Vec_IntFill.exit73
  %56 = zext nneg i32 %3 to i64
  %57 = zext nneg i32 %4 to i64
  br label %.preheader74.us

.preheader74.us:                                  ; preds = %.preheader74.us.preheader, %._crit_edge.us
  %indvars.iv83 = phi i64 [ 0, %.preheader74.us.preheader ], [ %indvars.iv.next84, %._crit_edge.us ]
  %58 = getelementptr inbounds nuw i32, ptr %2, i64 %indvars.iv83
  %59 = getelementptr inbounds nuw i32, ptr %26, i64 %indvars.iv83
  %indvars.iv.next84 = add nuw nsw i64 %indvars.iv83, 1
  %60 = icmp ne i64 %indvars.iv.next84, %57
  br label %61

61:                                               ; preds = %.preheader74.us, %Wlc_BlastFullAdder.exit.us
  %indvars.iv = phi i64 [ 0, %.preheader74.us ], [ %indvars.iv.next, %Wlc_BlastFullAdder.exit.us ]
  %62 = getelementptr inbounds nuw i32, ptr %1, i64 %indvars.iv
  %63 = load i32, ptr %62, align 4, !tbaa !3
  %64 = load i32, ptr %58, align 4, !tbaa !3
  %65 = getelementptr inbounds nuw i32, ptr %49, i64 %indvars.iv
  %66 = load i32, ptr %65, align 4, !tbaa !3
  %67 = getelementptr inbounds nuw i32, ptr %44, i64 %indvars.iv
  %68 = load i32, ptr %67, align 4, !tbaa !3
  %.not63.us = icmp eq i64 %indvars.iv, 0
  %69 = getelementptr i8, ptr %65, i64 -4
  %70 = select i1 %.not63.us, ptr %59, ptr %69
  %indvars.iv.next = add nuw nsw i64 %indvars.iv, 1
  %71 = icmp eq i64 %indvars.iv.next, %56
  %72 = xor i1 %60, %71
  %narrow = select i1 %.not, i1 true, i1 %72
  %73 = zext i1 %narrow to i32
  %74 = tail call i32 @Gia_ManHashAnd(ptr noundef %0, i32 noundef %63, i32 noundef %64) #23
  %75 = xor i32 %74, %73
  %76 = icmp eq i32 %75, 1
  %77 = icmp eq i32 %66, 1
  %or.cond.i.us = or i1 %77, %76
  %78 = icmp eq i32 %68, 1
  %spec.select.i.us = or i1 %78, %or.cond.i.us
  %79 = zext i1 %spec.select.i.us to i32
  %.054.i.us = xor i32 %68, %79
  %.053.i.us = xor i32 %66, %79
  %.0.i.us = xor i32 %75, %79
  %80 = tail call i32 @Gia_ManHashAnd(ptr noundef %0, i32 noundef %.0.i.us, i32 noundef %.053.i.us) #23
  %81 = xor i32 %.0.i.us, 1
  %82 = xor i32 %.053.i.us, 1
  %83 = tail call i32 @Gia_ManHashAnd(ptr noundef %0, i32 noundef %81, i32 noundef %82) #23
  %84 = xor i32 %80, 1
  %85 = xor i32 %83, 1
  %86 = tail call i32 @Gia_ManHashAnd(ptr noundef %0, i32 noundef %84, i32 noundef %85) #23
  %87 = tail call i32 @Gia_ManHashAnd(ptr noundef %0, i32 noundef %.054.i.us, i32 noundef %86) #23
  %88 = xor i32 %.054.i.us, 1
  %89 = xor i32 %86, 1
  %90 = tail call i32 @Gia_ManHashAnd(ptr noundef %0, i32 noundef %88, i32 noundef %89) #23
  %91 = xor i32 %87, 1
  %92 = xor i32 %90, 1
  %93 = tail call i32 @Gia_ManHashAnd(ptr noundef %0, i32 noundef %91, i32 noundef %92) #23
  store i32 %93, ptr %70, align 4, !tbaa !3
  %94 = tail call i32 @Gia_ManHashOr(ptr noundef %0, i32 noundef %80, i32 noundef %87) #23
  store i32 %94, ptr %67, align 4, !tbaa !3
  br i1 %spec.select.i.us, label %95, label %Wlc_BlastFullAdder.exit.us

95:                                               ; preds = %61
  %96 = load i32, ptr %70, align 4, !tbaa !3
  %97 = xor i32 %96, 1
  store i32 %97, ptr %70, align 4, !tbaa !3
  %98 = load i32, ptr %67, align 4, !tbaa !3
  %99 = xor i32 %98, 1
  store i32 %99, ptr %67, align 4, !tbaa !3
  br label %Wlc_BlastFullAdder.exit.us

Wlc_BlastFullAdder.exit.us:                       ; preds = %95, %61
  %exitcond.not = icmp eq i64 %indvars.iv.next, %56
  br i1 %exitcond.not, label %._crit_edge.us, label %61, !llvm.loop !86

._crit_edge.us:                                   ; preds = %Wlc_BlastFullAdder.exit.us
  br i1 %60, label %.preheader74.us, label %._crit_edge77, !llvm.loop !87

._crit_edge77:                                    ; preds = %._crit_edge.us, %Vec_IntFill.exit73
  %100 = getelementptr i32, ptr %49, i64 %48
  %101 = getelementptr i8, ptr %100, i64 -4
  store i32 %10, ptr %101, align 4, !tbaa !3
  %102 = sext i32 %4 to i64
  %wide.trip.count91 = zext nneg i32 %3 to i64
  %invariant.gep = getelementptr i32, ptr %26, i64 %102
  br label %.lr.ph

.preheader:                                       ; preds = %.lr.ph, %Vec_IntFill.exit73.thread
  br i1 %24, label %.lr.ph80.preheader, label %._crit_edge

.lr.ph80.preheader:                               ; preds = %.preheader
  %wide.trip.count96 = zext nneg i32 %11 to i64
  br label %.lr.ph80

.lr.ph:                                           ; preds = %._crit_edge77, %.lr.ph
  %indvars.iv88 = phi i64 [ 0, %._crit_edge77 ], [ %indvars.iv.next89, %.lr.ph ]
  %103 = getelementptr inbounds nuw i32, ptr %44, i64 %indvars.iv88
  %104 = load i32, ptr %103, align 4, !tbaa !3
  %105 = getelementptr inbounds nuw i32, ptr %49, i64 %indvars.iv88
  %106 = load i32, ptr %105, align 4, !tbaa !3
  %107 = load i32, ptr %9, align 4, !tbaa !3
  %gep = getelementptr i32, ptr %invariant.gep, i64 %indvars.iv88
  %108 = tail call i32 @Gia_ManHashAnd(ptr noundef %0, i32 noundef 1, i32 noundef %104) #23
  call void @Wlc_BlastFullAdder(ptr noundef %0, i32 noundef %108, i32 noundef %106, i32 noundef %107, ptr noundef nonnull %9, ptr noundef %gep)
  %indvars.iv.next89 = add nuw nsw i64 %indvars.iv88, 1
  %exitcond92.not = icmp eq i64 %indvars.iv.next89, %wide.trip.count91
  br i1 %exitcond92.not, label %.preheader, label %.lr.ph, !llvm.loop !88

.lr.ph80:                                         ; preds = %.lr.ph80.preheader, %.lr.ph80
  %indvars.iv93 = phi i64 [ 0, %.lr.ph80.preheader ], [ %indvars.iv.next94, %.lr.ph80 ]
  %109 = getelementptr inbounds nuw i32, ptr %26, i64 %indvars.iv93
  %110 = load i32, ptr %109, align 4, !tbaa !3
  %111 = xor i32 %110, 1
  store i32 %111, ptr %109, align 4, !tbaa !3
  %indvars.iv.next94 = add nuw nsw i64 %indvars.iv93, 1
  %exitcond97.not = icmp eq i64 %indvars.iv.next94, %wide.trip.count96
  br i1 %exitcond97.not, label %._crit_edge, label %.lr.ph80, !llvm.loop !89

._crit_edge:                                      ; preds = %.lr.ph80, %.preheader
  call void @llvm.lifetime.end.p0(i64 4, ptr nonnull %9) #23
  ret void
}